Certificate:
    Data:
        Version: 3 (0x2)
        Serial Number: 4 (0x4)
        Signature Algorithm: sha256WithRSAEncryption
        Issuer: C=SE, ST=Stockholm Area, L=Solna, O=JobTech Dev, OU=Trusty Cert Store Shop, CN=Gunnar CA/emailAddress=ls
        Validity
            Not Before: Mar  7 22:31:26 2021 GMT
            Not After : Jun 10 22:31:26 2023 GMT
        Subject: C=SE, ST=Stockholm Area, L=Solna, O=JobTech Dev, CN=Gunnar Server
        Subject Public Key Info:
            Public Key Algorithm: rsaEncryption
                RSA Public-Key: (2048 bit)
                Modulus:
                    00:e5:70:60:f2:70:80:52:05:93:07:49:93:36:7c:
                    7a:d6:45:1e:08:bc:b6:94:45:48:48:e7:a3:b8:9c:
                    91:36:c4:13:58:e0:e6:b0:13:f0:62:2d:84:85:b3:
                    a5:e2:1a:41:cd:da:29:6a:5a:4e:81:92:e9:86:4b:
                    44:37:4a:39:9d:c6:04:2e:27:1d:94:f9:7f:49:36:
                    46:58:33:a2:3f:d7:e8:5d:41:e7:e6:c7:6d:45:ce:
                    60:25:a5:3b:7d:e5:01:02:c2:e7:21:5b:6a:66:f6:
                    72:2e:94:41:4f:c0:f4:fb:9f:95:d7:b9:f6:58:bb:
                    6a:30:3d:cc:3e:6c:e4:d7:54:4f:67:f7:c9:bd:d9:
                    ef:93:40:33:10:49:c7:e6:74:9d:d6:b6:67:76:e6:
                    ac:50:0e:8d:2b:1b:08:70:b2:32:5e:5a:bc:8a:1a:
                    2c:93:14:54:51:e7:93:66:9a:6f:29:63:fc:55:18:
                    ec:9d:ef:af:b4:36:1a:16:e2:e4:6d:72:90:55:a9:
                    85:ff:21:29:b0:9f:94:b1:bd:e0:05:28:fb:81:54:
                    48:7a:6b:71:3c:18:d1:30:5c:64:17:4e:be:e9:27:
                    69:58:01:3c:d9:de:d8:5a:88:b9:bc:56:29:fe:3f:
                    88:18:70:d7:75:53:55:bb:e5:6a:8f:c0:49:2e:ad:
                    7d:5b
                Exponent: 65537 (0x10001)
        X509v3 extensions:
            X509v3 Subject Key Identifier: 
                EA:83:68:F6:51:B6:E0:8F:8B:89:7D:6D:F7:C1:04:AB:D3:17:D4:0C
            X509v3 Authority Key Identifier: 
                keyid:C2:B4:FC:63:20:07:8B:57:01:2A:70:4E:D5:D9:91:B3:EC:EA:48:9F

            X509v3 Basic Constraints: 
                CA:FALSE
            X509v3 Key Usage: 
                Digital Signature, Key Encipherment
            X509v3 Subject Alternative Name: 
                DNS:af-connect.local, DNS:www.deploja.se, DNS:www.mobimation.com, DNS:gunn.ar, IP Address:127.0.0.1, IP Address:0:0:0:0:0:0:0:1
            Netscape Comment: 
                OpenSSL Generated Certificate
    Signature Algorithm: sha256WithRSAEncryption
         98:32:02:12:13:78:12:ce:52:d7:9a:ea:a9:0c:c3:49:7a:0b:
         c5:06:dc:ba:ac:d7:c6:9c:c5:03:dd:7e:18:15:31:03:67:76:
         7f:6e:f4:ba:81:ce:6e:42:a4:5f:0d:2b:6c:d5:21:fa:7a:fc:
         2e:a2:56:e4:19:8b:93:04:b4:8c:08:eb:23:0a:cf:9e:c3:89:
         30:e5:6e:c5:0f:0b:6d:ac:af:a0:d7:bf:fe:1b:b1:da:b4:27:
         b9:2e:d4:d3:a2:8f:7b:d1:17:95:ca:79:76:ec:55:04:10:60:
         9a:9f:19:36:0c:3a:23:e9:4f:a9:f9:5c:f1:5e:67:37:5d:3a:
         d0:cf:68:1e:bf:8c:75:86:99:a7:20:1b:33:82:ca:38:d0:57:
         fa:74:87:02:a0:b5:3e:b9:41:69:0e:59:1d:6f:21:5a:18:cc:
         2b:38:71:a9:96:e3:02:92:eb:c8:00:03:94:db:69:87:7d:ec:
         33:32:d4:0f:e0:c4:c4:f9:fd:17:db:89:98:43:94:61:d9:39:
         0c:d3:72:27:b8:cf:4c:c1:92:84:34:7d:0e:7a:0c:3d:42:da:
         ad:84:d4:88:01:37:28:c8:ed:3c:45:d3:cb:d1:22:cc:2c:88:
         9c:54:16:7a:1b:22:62:5a:a3:ee:a1:e8:fb:81:db:26:e7:aa:
         7b:94:ee:62:6f:be:45:77:cf:cb:4e:41:c5:ac:09:b6:12:b7:
         42:83:15:93:d6:13:f2:95:c1:60:71:7e:87:04:d3:96:c4:78:
         b1:34:30:d5:0e:de:a9:ff:13:26:c2:5f:da:98:5d:2a:bc:c8:
         cf:db:57:20:e9:f6:99:e0:fd:6e:f7:81:24:9a:e7:6b:3e:ae:
         0c:a6:d7:52:03:76:50:6e:17:09:c4:8f:74:9b:03:9f:a4:5a:
         2d:42:07:10:ea:19:e8:21:81:5b:2a:fb:0e:a7:7c:c9:6e:1f:
         b8:7e:2e:f5:6e:35:a8:e7:1d:d1:ce:d1:7d:f3:2e:d7:97:29:
         84:a4:6d:61:17:24:91:4c:11:8b:fb:de:a8:a4:25:b5:52:ce:
         cc:e5:fe:0e:0f:ef:93:d2:94:98:55:13:d8:bc:cb:62:36:a1:
         6f:07:2a:b1:16:f7:e0:27:65:8f:a0:54:89:9d:f3:6e:d0:5c:
         23:b2:73:93:a2:ab:1f:c1:e6:c8:99:12:06:85:6a:70:27:7d:
         0d:ba:70:b9:ca:df:47:eb:7c:fd:d2:4a:d0:37:09:03:f7:e5:
         41:03:b0:eb:fa:2b:71:f3:55:f5:79:9a:02:9a:c2:7f:53:8a:
         e0:42:65:d0:19:bf:24:55:57:3b:b3:50:e1:27:73:e5:b5:ec:
         09:b5:3b:3f:b7:0b:c8:08
-----BEGIN CERTIFICATE-----
MIIFYDCCA0igAwIBAgIBBDANBgkqhkiG9w0BAQsFADCBlDELMAkGA1UEBhMCU0Ux
FzAVBgNVBAgMDlN0b2NraG9sbSBBcmVhMQ4wDAYDVQQHDAVTb2xuYTEUMBIGA1UE
CgwLSm9iVGVjaCBEZXYxHzAdBgNVBAsMFlRydXN0eSBDZXJ0IFN0b3JlIFNob3Ax
EjAQBgNVBAMMCUd1bm5hciBDQTERMA8GCSqGSIb3DQEJARYCbHMwHhcNMjEwMzA3
MjIzMTI2WhcNMjMwNjEwMjIzMTI2WjBkMQswCQYDVQQGEwJTRTEXMBUGA1UECAwO
U3RvY2tob2xtIEFyZWExDjAMBgNVBAcMBVNvbG5hMRQwEgYDVQQKDAtKb2JUZWNo
IERldjEWMBQGA1UEAwwNR3VubmFyIFNlcnZlcjCCASIwDQYJKoZIhvcNAQEBBQAD
ggEPADCCAQoCggEBAOVwYPJwgFIFkwdJkzZ8etZFHgi8tpRFSEjno7ickTbEE1jg
5rAT8GIthIWzpeIaQc3aKWpaToGS6YZLRDdKOZ3GBC4nHZT5f0k2Rlgzoj/X6F1B
5+bHbUXOYCWlO33lAQLC5yFbamb2ci6UQU/A9Puflde59li7ajA9zD5s5NdUT2f3
yb3Z75NAMxBJx+Z0nda2Z3bmrFAOjSsbCHCyMl5avIoaLJMUVFHnk2aabylj/FUY
7J3vr7Q2Ghbi5G1ykFWphf8hKbCflLG94AUo+4FUSHprcTwY0TBcZBdOvuknaVgB
PNne2FqIubxWKf4/iBhw13VTVbvlao/ASS6tfVsCAwEAAaOB6zCB6DAdBgNVHQ4E
FgQU6oNo9lG24I+LiX1t98EEq9MX1AwwHwYDVR0jBBgwFoAUwrT8YyAHi1cBKnBO
1dmRs+zqSJ8wCQYDVR0TBAIwADALBgNVHQ8EBAMCBaAwYAYDVR0RBFkwV4IQYWYt
Y29ubmVjdC5sb2NhbIIOd3d3LmRlcGxvamEuc2WCEnd3dy5tb2JpbWF0aW9uLmNv
bYIHZ3Vubi5hcocEfwAAAYcQAAAAAAAAAAAAAAAAAAAAATAsBglghkgBhvhCAQ0E
HxYdT3BlblNTTCBHZW5lcmF0ZWQgQ2VydGlmaWNhdGUwDQYJKoZIhvcNAQELBQAD
ggIBAJgyAhITeBLOUtea6qkMw0l6C8UG3Lqs18acxQPdfhgVMQNndn9u9LqBzm5C
pF8NK2zVIfp6/C6iVuQZi5MEtIwI6yMKz57DiTDlbsUPC22sr6DXv/4bsdq0J7ku
1NOij3vRF5XKeXbsVQQQYJqfGTYMOiPpT6n5XPFeZzddOtDPaB6/jHWGmacgGzOC
yjjQV/p0hwKgtT65QWkOWR1vIVoYzCs4camW4wKS68gAA5TbaYd97DMy1A/gxMT5
/RfbiZhDlGHZOQzTcie4z0zBkoQ0fQ56DD1C2q2E1IgBNyjI7TxF08vRIswsiJxU
FnobImJao+6h6PuB2ybnqnuU7mJvvkV3z8tOQcWsCbYSt0KDFZPWE/KVwWBxfocE
05bEeLE0MNUO3qn/EybCX9qYXSq8yM/bVyDp9png/W73gSSa52s+rgym11IDdlBu
FwnEj3SbA5+kWi1CBxDqGeghgVsq+w6nfMluH7h+LvVuNajnHdHO0X3zLteXKYSk
bWEXJJFMEYv73qikJbVSzszl/g4P75PSlJhVE9i8y2I2oW8HKrEW9+AnZY+gVImd
827QXCOyc5Oiqx/B5siZEgaFanAnfQ26cLnK30frfP3SStA3CQP35UEDsOv6K3Hz
VfV5mgKawn9TiuBCZdAZvyRVVzuzUOEnc+W17Am1Oz+3C8gI
-----END CERTIFICATE-----
